target datalayout = "e-m:e-p270:32:32-p271:32:32-p272:64:64-i64:64-i128:128-f80:128-n8:16:32:64-S128"
target triple = "x86_64-pc-linux-gnu"

; Function Attrs: nounwind uwtable
define dso_local i32 @hashTypeExists(ptr noundef %0, ptr noundef %1, ptr noundef %2, i32 noundef %3, ptr noundef %4) #1 {
  %6 = alloca ptr, align 8
  %7 = alloca ptr, align 8
  %8 = alloca ptr, align 8
  %9 = alloca i32, align 4
  %10 = alloca ptr, align 8
  %11 = alloca ptr, align 8
  %12 = alloca i32, align 4
  %13 = alloca i64, align 8
  %14 = alloca i32, align 4
  store ptr %0, ptr %6, align 8, !tbaa !27
  store ptr %1, ptr %7, align 8, !tbaa !15
  store ptr %2, ptr %8, align 8, !tbaa !33
  store i32 %3, ptr %9, align 4, !tbaa !13
  store ptr %4, ptr %10, align 8, !tbaa !103
  call void @llvm.lifetime.start.p0(i64 8, ptr %11) #12
  store ptr null, ptr %11, align 8, !tbaa !33
  call void @llvm.lifetime.start.p0(i64 4, ptr %12) #12
  store i32 -1, ptr %12, align 4, !tbaa !13
  call void @llvm.lifetime.start.p0(i64 8, ptr %13) #12
  store i64 9223372036854775807, ptr %13, align 8, !tbaa !37
  call void @llvm.lifetime.start.p0(i64 4, ptr %14) #12
  %15 = load ptr, ptr %6, align 8, !tbaa !27
  %16 = load ptr, ptr %7, align 8, !tbaa !15
  %17 = load ptr, ptr %8, align 8, !tbaa !33
  %18 = load i32, ptr %9, align 4, !tbaa !13
  %19 = call i32 @hashTypeGetValue(ptr noundef %15, ptr noundef %16, ptr noundef %17, ptr noundef %11, ptr noundef %12, ptr noundef %13, i32 noundef %18, ptr noundef null)
  store i32 %19, ptr %14, align 4, !tbaa !13
  %20 = load ptr, ptr %10, align 8, !tbaa !103
  %21 = icmp ne ptr %20, null
  br i1 %21, label %22, label %27

22:                                               ; preds = %5
  %23 = load i32, ptr %14, align 4, !tbaa !13
  %24 = icmp eq i32 %23, 3
  %25 = select i1 %24, i32 1, i32 0
  %26 = load ptr, ptr %10, align 8, !tbaa !103
  store i32 %25, ptr %26, align 4, !tbaa !13
  br label %27

27:                                               ; preds = %22, %5
  %28 = load i32, ptr %14, align 4, !tbaa !13
  %29 = icmp eq i32 %28, 0
  %30 = select i1 %29, i32 1, i32 0
  call void @llvm.lifetime.end.p0(i64 4, ptr %14) #12
  call void @llvm.lifetime.end.p0(i64 8, ptr %13) #12
  call void @llvm.lifetime.end.p0(i64 4, ptr %12) #12
  call void @llvm.lifetime.end.p0(i64 8, ptr %11) #12
  ret i32 %30
}