; Function Attrs: nounwind uwtable
define dso_local range(i32 0, 2) i32 @hashTypeExists(ptr noundef %0, ptr noundef captures(none) %1, ptr noundef %2, i32 noundef %3, ptr noundef writeonly captures(address_is_null) %4) local_unnamed_addr #1 {
  %6 = alloca ptr, align 8
  %7 = alloca i32, align 4
  %8 = alloca i64, align 8
  call void @llvm.lifetime.start.p0(i64 8, ptr nonnull %6) #16
  call void @llvm.lifetime.start.p0(i64 4, ptr nonnull %7) #16
  store i32 -1, ptr %7, align 4, !tbaa !65
  call void @llvm.lifetime.start.p0(i64 8, ptr nonnull %8) #16
  store i64 9223372036854775807, ptr %8, align 8, !tbaa !24
  %9 = call i32 @hashTypeGetValue(ptr noundef %0, ptr noundef %1, ptr noundef %2, ptr noundef nonnull %6, ptr noundef nonnull %7, ptr noundef nonnull %8, i32 noundef %3, ptr noundef null)
  %.not = icmp eq ptr %4, null
  br i1 %.not, label %13, label %10

10:                                               ; preds = %5
  %11 = icmp eq i32 %9, 3
  %12 = zext i1 %11 to i32
  store i32 %12, ptr %4, align 4, !tbaa !65
  br label %13

13:                                               ; preds = %10, %5
  %14 = icmp eq i32 %9, 0
  %15 = zext i1 %14 to i32
  call void @llvm.lifetime.end.p0(i64 8, ptr nonnull %8) #16
  call void @llvm.lifetime.end.p0(i64 4, ptr nonnull %7) #16
  call void @llvm.lifetime.end.p0(i64 8, ptr nonnull %6) #16
  ret i32 %15
}